(lp1
(lp2
I15
aI0
aI0
aI0
aa(lp3
I9
aI0
aI0
aI0
aa(lp4
I24
aI0
aI0
aI0
aa(lp5
I10
aI0
aI0
aI0
aa(lp6
I9
aI0
aI0
aI0
aa(lp7
I12
aI0
aI0
aI0
aa(lp8
I11
aI0
aI0
aI0
aa(lp9
I10
aI0
aI0
aI0
aa(lp10
I8
aI0
aI0
aI0
aa(lp11
I11
aI0
aI0
aI0
aa(lp12
I11
aI0
aI0
aI0
aa(lp13
I10
aI0
aI0
aI0
aa(lp14
I11
aI0
aI0
aI0
aa(lp15
I10
aI0
aI0
aI0
aa(lp16
I10
aI0
aI0
aI0
aa(lp17
I7
aI0
aI0
aI0
aa(lp18
I17
aI0
aI0
aI0
aa(lp19
I10
aI0
aI0
aI0
aa(lp20
I20
aI0
aI0
aI0
aa(lp21
I8
aI0
aI0
aI0
aa(lp22
I8
aI0
aI0
aI0
aa(lp23
I11
aI0
aI0
aI0
aa(lp24
I7
aI0
aI0
aI0
aa(lp25
I15
aI0
aI0
aI0
aa(lp26
I7
aI0
aI0
aI0
aa(lp27
I9
aI0
aI0
aI0
aa(lp28
I10
aI0
aI0
aI0
aa(lp29
I10
aI0
aI0
aI0
aa(lp30
I6
aI0
aI0
aI0
aa(lp31
I6
aI0
aI0
aI0
aa(lp32
I10
aI0
aI0
aI0
aa(lp33
I11
aI0
aI0
aI0
aa(lp34
I9
aI0
aI0
aI0
aa(lp35
I11
aI0
aI0
aI0
aa(lp36
I10
aI0
aI0
aI0
aa(lp37
I8
aI0
aI0
aI0
aa(lp38
I23
aI0
aI0
aI0
aa(lp39
I11
aI0
aI0
aI0
aa(lp40
I9
aI0
aI0
aI0
aa(lp41
I10
aI0
aI0
aI0
aa(lp42
I10
aI0
aI0
aI0
aa(lp43
I11
aI0
aI0
aI0
aa(lp44
I10
aI0
aI0
aI0
aa(lp45
I17
aI0
aI0
aI0
aa(lp46
I9
aI0
aI0
aI0
aa(lp47
I8
aI0
aI0
aI0
aa(lp48
I7
aI0
aI0
aI0
aa(lp49
I10
aI0
aI0
aI0
aa(lp50
I10
aI0
aI0
aI0
aa(lp51
I14
aI0
aI0
aI0
aa(lp52
I11
aI0
aI0
aI0
aa(lp53
I7
aI0
aI0
aI0
aa(lp54
I8
aI0
aI0
aI0
aa(lp55
I10
aI0
aI0
aI0
aa(lp56
I12
aI0
aI0
aI0
aa(lp57
I11
aI0
aI0
aI0
aa(lp58
I7
aI0
aI0
aI0
aa(lp59
I7
aI0
aI0
aI0
aa(lp60
I9
aI0
aI0
aI0
aa(lp61
I10
aI0
aI0
aI0
aa(lp62
I19
aI0
aI0
aI0
aa(lp63
I7
aI0
aI0
aI0
aa(lp64
I11
aI0
aI0
aI0
aa(lp65
I9
aI0
aI0
aI0
aa(lp66
I16
aI0
aI0
aI0
aa(lp67
I10
aI0
aI0
aI0
aa(lp68
I11
aI0
aI0
aI0
aa(lp69
I9
aI0
aI0
aI0
aa(lp70
I8
aI0
aI0
aI0
aa(lp71
I7
aI0
aI0
aI0
aa(lp72
I10
aI0
aI0
aI0
aa(lp73
I7
aI0
aI0
aI0
aa(lp74
I8
aI0
aI0
aI0
aa(lp75
I11
aI0
aI0
aI0
aa(lp76
I10
aI0
aI0
aI0
aa(lp77
I10
aI0
aI0
aI0
aa(lp78
I9
aI0
aI0
aI0
aa(lp79
I10
aI0
aI0
aI0
aa(lp80
I10
aI0
aI0
aI0
aa(lp81
I9
aI0
aI0
aI0
aa(lp82
I9
aI0
aI0
aI0
aa(lp83
I8
aI0
aI0
aI0
aa(lp84
I14
aI0
aI0
aI0
aa(lp85
I11
aI0
aI0
aI0
aa(lp86
I9
aI0
aI0
aI0
aa(lp87
I9
aI0
aI0
aI0
aa(lp88
I7
aI0
aI0
aI0
aa(lp89
I10
aI0
aI0
aI0
aa(lp90
I8
aI0
aI0
aI0
aa(lp91
I10
aI0
aI0
aI0
aa(lp92
I8
aI0
aI0
aI0
aa(lp93
I9
aI0
aI0
aI0
aa(lp94
I10
aI0
aI0
aI0
aa(lp95
I9
aI0
aI0
aI0
aa(lp96
I8
aI0
aI0
aI0
aa(lp97
I11
aI0
aI0
aI0
aa(lp98
I18
aI0
aI0
aI0
aa(lp99
I10
aI0
aI0
aI0
aa(lp100
I20
aI0
aI0
aI0
aa(lp101
I10
aI0
aI0
aI0
aa(lp102
I8
aI0
aI0
aI0
aa(lp103
I7
aI0
aI0
aI0
aa(lp104
I11
aI0
aI0
aI0
aa(lp105
I8
aI0
aI0
aI0
aa(lp106
I19
aI0
aI0
aI0
aa.